; Function Attrs: mustprogress uwtable
define hidden void @_ZN4cvc58internal6theory9datatypes21ConstructorProperties18computeCardinalityENS0_8TypeNodeE(ptr dead_on_unwind noalias nonnull writable sret(%"class.cvc5::internal::Cardinality") align 8 %0, ptr noundef readonly captures(none) %1) local_unnamed_addr #3 align 2 personality ptr @__gxx_personality_v0 {
  %3 = alloca %"class.cvc5::internal::Cardinality", align 8
  %4 = alloca %"class.cvc5::internal::TypeNode", align 8
  tail call void @_ZN4cvc58internal11CardinalityC1El(ptr noundef nonnull align 8 dereferenceable(16) %0, i64 noundef 1)
  %5 = load ptr, ptr %1, align 8, !tbaa !18
  %6 = getelementptr inbounds nuw i8, ptr %5, i64 8
  %7 = load i64, ptr %6, align 8
  %8 = trunc i64 %7 to i32
  %9 = and i32 %8, 1023
  %10 = icmp eq i32 %9, 1023
  %11 = select i1 %10, i32 -1, i32 %9
  %12 = invoke noundef i32 @_ZN4cvc58internal4kind10metaKindOfENS1_6Kind_tE(i32 noundef %11)
          to label %13 unwind label %22

13:                                               ; preds = %2
  %14 = icmp eq i32 %12, 2
  %15 = load i64, ptr %6, align 8
  %16 = lshr i64 %15, 32
  %17 = and i64 %16, 67108863
  %18 = sext i1 %14 to i64
  %19 = add nsw i64 %17, %18
  %20 = trunc nsw i64 %19 to i32
  %21 = add nsw i32 %20, -1
  %.not = icmp eq i32 %21, 0
  br i1 %.not, label %._crit_edge, label %.lr.ph

22:                                               ; preds = %2
  %23 = landingpad { ptr, i32 }
          cleanup
  br label %82

.lr.ph:                                           ; preds = %13, %_ZN4cvc58internal8TypeNodeD2Ev.exit
  %.0916 = phi i32 [ %71, %_ZN4cvc58internal8TypeNodeD2Ev.exit ], [ 0, %13 ]
  call void @llvm.lifetime.start.p0(i64 16, ptr nonnull %3) #21
  call void @llvm.lifetime.start.p0(i64 8, ptr nonnull %4) #21
  call void @llvm.experimental.noalias.scope.decl(metadata !225)
  %24 = load ptr, ptr %1, align 8, !tbaa !18, !noalias !225
  %25 = getelementptr inbounds nuw i8, ptr %24, i64 8
  %26 = load i64, ptr %25, align 8, !noalias !225
  %27 = trunc i64 %26 to i32
  %28 = and i32 %27, 1023
  %29 = icmp eq i32 %28, 1023
  %30 = select i1 %29, i32 -1, i32 %28
  %31 = invoke noundef i32 @_ZN4cvc58internal4kind10metaKindOfENS1_6Kind_tE(i32 noundef %30)
          to label %.noexc unwind label %72

.noexc:                                           ; preds = %.lr.ph
  %32 = icmp eq i32 %31, 2
  %33 = zext i1 %32 to i32
  %spec.select.i.i = add nuw nsw i32 %.0916, %33
  %34 = getelementptr inbounds nuw i8, ptr %24, i64 24
  %35 = sext i32 %spec.select.i.i to i64
  %36 = getelementptr inbounds [0 x ptr], ptr %34, i64 0, i64 %35
  %37 = load ptr, ptr %36, align 8, !tbaa !24, !noalias !225
  store ptr %37, ptr %4, align 8, !tbaa !18, !alias.scope !225
  %38 = load i64, ptr %37, align 8, !noalias !225
  %39 = lshr i64 %38, 40
  %40 = trunc nuw nsw i64 %39 to i32
  %41 = and i32 %40, 1048575
  %42 = icmp samesign ult i32 %41, 1048574
  br i1 %42, label %43, label %48, !prof !25

43:                                               ; preds = %.noexc
  %44 = add i64 %38, 1099511627776
  %45 = and i64 %44, 1152920405095219200
  %46 = and i64 %38, -1152920405095219201
  %47 = or disjoint i64 %45, %46
  store i64 %47, ptr %37, align 8, !noalias !225
  br label %_ZNK4cvc58internal8TypeNodeixEi.exit

48:                                               ; preds = %.noexc
  %49 = icmp eq i32 %41, 1048574
  br i1 %49, label %50, label %_ZNK4cvc58internal8TypeNodeixEi.exit, !prof !14

50:                                               ; preds = %48
  %51 = or i64 %38, 1152920405095219200
  store i64 %51, ptr %37, align 8, !noalias !225
  invoke void @_ZN4cvc58internal4expr9NodeValue20markRefCountMaxedOutEv(ptr noundef nonnull align 8 dereferenceable(24) %37)
          to label %_ZNK4cvc58internal8TypeNodeixEi.exit unwind label %72

_ZNK4cvc58internal8TypeNodeixEi.exit:             ; preds = %48, %43, %50
  invoke void @_ZNK4cvc58internal8TypeNode14getCardinalityEv(ptr dead_on_unwind nonnull writable sret(%"class.cvc5::internal::Cardinality") align 8 %3, ptr noundef nonnull align 8 dereferenceable(8) %4)
          to label %52 unwind label %74

52:                                               ; preds = %_ZNK4cvc58internal8TypeNodeixEi.exit
  %53 = invoke noundef nonnull align 8 dereferenceable(16) ptr @_ZN4cvc58internal11CardinalitymLERKS1_(ptr noundef nonnull align 8 dereferenceable(16) %0, ptr noundef nonnull align 8 dereferenceable(16) %3)
          to label %54 unwind label %76

54:                                               ; preds = %52
  invoke void @__gmpz_clear(ptr noundef nonnull align 8 dereferenceable(16) %3)
          to label %_ZN4cvc58internal11CardinalityD2Ev.exit unwind label %55

55:                                               ; preds = %54
  %56 = landingpad { ptr, i32 }
          catch ptr null
  %57 = extractvalue { ptr, i32 } %56, 0
  call void @__clang_call_terminate(ptr %57) #22
  unreachable

_ZN4cvc58internal11CardinalityD2Ev.exit:          ; preds = %54
  %58 = load ptr, ptr %4, align 8, !tbaa !18
  %59 = load i64, ptr %58, align 8
  %60 = and i64 %59, 1152920405095219200
  %.not.i.i = icmp eq i64 %60, 1152920405095219200
  br i1 %.not.i.i, label %_ZN4cvc58internal8TypeNodeD2Ev.exit, label %61, !prof !14

61:                                               ; preds = %_ZN4cvc58internal11CardinalityD2Ev.exit
  %62 = add i64 %59, 1152920405095219200
  %63 = and i64 %62, 1152920405095219200
  %64 = and i64 %59, -1152920405095219201
  %65 = or disjoint i64 %63, %64
  store i64 %65, ptr %58, align 8
  %66 = icmp eq i64 %63, 0
  br i1 %66, label %67, label %_ZN4cvc58internal8TypeNodeD2Ev.exit, !prof !14

67:                                               ; preds = %61
  invoke void @_ZN4cvc58internal4expr9NodeValue15markForDeletionEv(ptr noundef nonnull align 8 dereferenceable(24) %58)
          to label %_ZN4cvc58internal8TypeNodeD2Ev.exit unwind label %68

68:                                               ; preds = %67
  %69 = landingpad { ptr, i32 }
          catch ptr null
  %70 = extractvalue { ptr, i32 } %69, 0
  call void @__clang_call_terminate(ptr %70) #22
  unreachable

_ZN4cvc58internal8TypeNodeD2Ev.exit:              ; preds = %_ZN4cvc58internal11CardinalityD2Ev.exit, %61, %67
  call void @llvm.lifetime.end.p0(i64 8, ptr nonnull %4) #21
  call void @llvm.lifetime.end.p0(i64 16, ptr nonnull %3) #21
  %71 = add nuw i32 %.0916, 1
  %exitcond.not = icmp eq i32 %71, %21
  br i1 %exitcond.not, label %._crit_edge, label %.lr.ph, !llvm.loop !228

72:                                               ; preds = %50, %.lr.ph
  %73 = landingpad { ptr, i32 }
          cleanup
  br label %81

74:                                               ; preds = %_ZNK4cvc58internal8TypeNodeixEi.exit
  %75 = landingpad { ptr, i32 }
          cleanup
  br label %_ZN4cvc58internal11CardinalityD2Ev.exit14

76:                                               ; preds = %52
  %77 = landingpad { ptr, i32 }
          cleanup
  invoke void @__gmpz_clear(ptr noundef nonnull align 8 dereferenceable(16) %3)
          to label %_ZN4cvc58internal11CardinalityD2Ev.exit14 unwind label %78

78:                                               ; preds = %76
  %79 = landingpad { ptr, i32 }
          catch ptr null
  %80 = extractvalue { ptr, i32 } %79, 0
  call void @__clang_call_terminate(ptr %80) #22
  unreachable

_ZN4cvc58internal11CardinalityD2Ev.exit14:        ; preds = %76, %74
  %.pn = phi { ptr, i32 } [ %75, %74 ], [ %77, %76 ]
  call void @_ZN4cvc58internal8TypeNodeD2Ev(ptr noundef nonnull align 8 dereferenceable(8) %4) #21
  br label %81

81:                                               ; preds = %_ZN4cvc58internal11CardinalityD2Ev.exit14, %72
  %.pn.pn = phi { ptr, i32 } [ %.pn, %_ZN4cvc58internal11CardinalityD2Ev.exit14 ], [ %73, %72 ]
  call void @llvm.lifetime.end.p0(i64 8, ptr nonnull %4) #21
  call void @llvm.lifetime.end.p0(i64 16, ptr nonnull %3) #21
  br label %82

82:                                               ; preds = %81, %22
  %.pn.pn.pn = phi { ptr, i32 } [ %.pn.pn, %81 ], [ %23, %22 ]
  invoke void @__gmpz_clear(ptr noundef nonnull align 8 dereferenceable(16) %0)
          to label %_ZN4cvc58internal11CardinalityD2Ev.exit15 unwind label %83

83:                                               ; preds = %82
  %84 = landingpad { ptr, i32 }
          catch ptr null
  %85 = extractvalue { ptr, i32 } %84, 0
  call void @__clang_call_terminate(ptr %85) #22
  unreachable

_ZN4cvc58internal11CardinalityD2Ev.exit15:        ; preds = %82
  resume { ptr, i32 } %.pn.pn.pn

._crit_edge:                                      ; preds = %_ZN4cvc58internal8TypeNodeD2Ev.exit, %13
  ret void
}